; Function Attrs: mustprogress uwtable
define void @_ZN5Block18setUpInConstraintsEv(ptr noundef nonnull align 8 captures(address) dereferenceable(112) %0) local_unnamed_addr #3 align 2 personality ptr @__gxx_personality_v0 {
  %2 = alloca %"class.std::vector", align 8
  call void @llvm.lifetime.start.p0(i64 24, ptr nonnull %2) #20
  call void @_ZN5Block19setUpConstraintHeapEb(ptr dead_on_unwind nonnull writable sret(%"class.std::vector") align 8 %2, ptr noundef nonnull align 8 dereferenceable(112) %0, i1 noundef zeroext true)
  %3 = getelementptr inbounds nuw i8, ptr %0, i64 64
  %4 = load ptr, ptr %3, align 8, !tbaa !35
  %5 = getelementptr inbounds nuw i8, ptr %0, i64 72
  %6 = getelementptr inbounds nuw i8, ptr %0, i64 80
  %7 = load ptr, ptr %6, align 8, !tbaa !36
  %8 = load ptr, ptr %2, align 8, !tbaa !35
  store ptr %8, ptr %3, align 8, !tbaa !35
  %9 = getelementptr inbounds nuw i8, ptr %2, i64 8
  %10 = load ptr, ptr %9, align 8, !tbaa !38
  store ptr %10, ptr %5, align 8, !tbaa !38
  %11 = getelementptr inbounds nuw i8, ptr %2, i64 16
  %12 = load ptr, ptr %11, align 8, !tbaa !36
  store ptr %12, ptr %6, align 8, !tbaa !36
  %.not.i.i.i.i.i = icmp eq ptr %4, null
  br i1 %.not.i.i.i.i.i, label %_ZNSt6vectorIP10ConstraintSaIS1_EED2Ev.exit, label %13

13:                                               ; preds = %1
  %14 = ptrtoint ptr %7 to i64
  %15 = ptrtoint ptr %4 to i64
  %16 = sub i64 %14, %15
  tail call void @_ZdlPvm(ptr noundef nonnull %4, i64 noundef %16) #19
  br label %_ZNSt6vectorIP10ConstraintSaIS1_EED2Ev.exit

_ZNSt6vectorIP10ConstraintSaIS1_EED2Ev.exit:      ; preds = %13, %1
  call void @llvm.lifetime.end.p0(i64 24, ptr nonnull %2) #20
  ret void
}